Certificate Request:
    Data:
        Version: 0 (0x0)
        Subject: C=AU, ST=Some-State, O=Internet Widgits Pty Ltd, CN=127.0.0.1
        Subject Public Key Info:
            Public Key Algorithm: rsaEncryption
            RSA Public Key: (1024 bit)
                Modulus (1024 bit):
                    00:b4:3a:a5:9e:3e:37:30:63:29:09:43:98:4e:c1:
                    cf:5f:2e:b2:32:71:1f:b9:98:ce:a7:e4:cc:fe:54:
                    ca:74:8e:fc:a0:cc:49:1a:52:fa:87:83:d5:69:3b:
                    cc:26:32:42:19:c8:0f:06:b1:72:0a:61:3c:0c:0e:
                    ea:ac:69:47:8e:f0:7a:8c:91:9f:93:61:04:c2:82:
                    c5:36:0d:dd:7b:25:90:82:a0:1b:14:5f:fa:a5:9e:
                    56:5c:6c:f5:f6:a9:de:53:fd:68:78:ff:a3:c1:24:
                    29:7e:79:81:61:65:db:a9:cc:50:33:44:ce:29:55:
                    e6:77:b7:84:d5:e4:65:b1:51
                Exponent: 65537 (0x10001)
        Attributes:
            a0:00
    Signature Algorithm: sha1WithRSAEncryption
        b3:a3:5e:08:74:9a:59:1c:cc:8c:e7:ba:97:9e:0d:d7:03:69:
        b5:75:33:1e:7f:90:73:48:51:d9:71:74:d8:18:eb:63:09:8b:
        96:30:83:05:93:df:6a:e0:1c:ab:4b:33:80:f5:b8:97:eb:f6:
        e5:f8:41:6e:9d:2b:99:63:e0:e7:73:3a:94:09:22:a7:34:9e:
        6a:15:37:a1:d4:65:71:ec:36:3c:6e:2f:68:73:b1:24:13:d3:
        d8:d5:f0:73:c6:c8:2b:f5:e0:48:53:d3:2a:e7:51:00:ef:81:
        16:ad:64:39:36:38:f9:de:9b:ab:70:f4:5a:6f:c8:a3:f3:53:
        9a:fe
-----BEGIN CERTIFICATE REQUEST-----
MIIBmTCCAQICAQAwWTELMAkGA1UEBhMCQVUxEzARBgNVBAgTClNvbWUtU3RhdGUx
ITAfBgNVBAoTGEludGVybmV0IFdpZGdpdHMgUHR5IEx0ZDESMBAGA1UEAxMJMTI3
LjAuMC4xMIGfMA0GCSqGSIb3DQEBAQUAA4GNADCBiQKBgQC0OqWePjcwYykJQ5hO
wc9fLrIycR+5mM6n5Mz+VMp0jvygzEkaUvqHg9VpO8wmMkIZyA8GsXIKYTwMDuqs
aUeO8HqMkZ+TYQTCgsU2Dd17JZCCoBsUX/qlnlZcbPX2qd5T/Wh4/6PBJCl+eYFh
ZdupzFAzRM4pVeZ3t4TV5GWxUQIDAQABoAAwDQYJKoZIhvcNAQEFBQADgYEAs6Ne
CHSaWRzMjOe6l54N1wNptXUzHn+Qc0hR2XF02BjrYwmLljCDBZPfauAcq0szgPW4
l+v25fhBbp0rmWPg53M6lAkipzSeahU3odRlcew2PG4vaHOxJBPT2NXwc8bIK/Xg
SFPTKudRAO+BFq1kOTY4+d6bq3D0Wm/Io/NTmv4=
-----END CERTIFICATE REQUEST-----
